target datalayout = "e-m:e-p270:32:32-p271:32:32-p272:64:64-i64:64-i128:128-f80:128-n8:16:32:64-S128"
target triple = "x86_64-pc-linux-gnu"

%struct.siphash_data_st = type { ptr, %struct.siphash_st, %struct.siphash_st, i32, i32 }
%struct.siphash_st = type { i64, i64, i64, i64, i64, i32, i32, i32, i32, [8 x i8] }

; Function Attrs: nounwind uwtable
define internal i64 @siphash_size(ptr noundef %0) #0 {
  %2 = alloca ptr, align 8
  %3 = alloca ptr, align 8
  store ptr %0, ptr %2, align 8, !tbaa !3
  call void @llvm.lifetime.start.p0(i64 8, ptr %3) #5
  %4 = load ptr, ptr %2, align 8, !tbaa !3
  store ptr %4, ptr %3, align 8, !tbaa !7
  %5 = load ptr, ptr %3, align 8, !tbaa !7
  %6 = getelementptr inbounds nuw %struct.siphash_data_st, ptr %5, i32 0, i32 1
  %7 = call i64 @SipHash_hash_size(ptr noundef %6)
  call void @llvm.lifetime.end.p0(i64 8, ptr %3) #5
  ret i64 %7
}

; Function Attrs: nounwind uwtable
define internal i32 @siphash_final(ptr noundef %0, ptr noundef %1, ptr noundef %2, i64 noundef %3) #0 {
  %5 = alloca i32, align 4
  %6 = alloca ptr, align 8
  %7 = alloca ptr, align 8
  %8 = alloca ptr, align 8
  %9 = alloca i64, align 8
  %10 = alloca ptr, align 8
  %11 = alloca i64, align 8
  %12 = alloca i32, align 4
  store ptr %0, ptr %6, align 8, !tbaa !3
  store ptr %1, ptr %7, align 8, !tbaa !18
  store ptr %2, ptr %8, align 8, !tbaa !23
  store i64 %3, ptr %9, align 8, !tbaa !15
  call void @llvm.lifetime.start.p0(i64 8, ptr %10) #5
  %13 = load ptr, ptr %6, align 8, !tbaa !3
  store ptr %13, ptr %10, align 8, !tbaa !7
  call void @llvm.lifetime.start.p0(i64 8, ptr %11) #5
  %14 = load ptr, ptr %10, align 8, !tbaa !7
  %15 = call i64 @siphash_size(ptr noundef %14)
  store i64 %15, ptr %11, align 8, !tbaa !15
  %16 = call i32 @ossl_prov_is_running()
  %17 = icmp ne i32 %16, 0
  br i1 %17, label %18, label %22

18:                                               ; preds = %4
  %19 = load i64, ptr %9, align 8, !tbaa !15
  %20 = load i64, ptr %11, align 8, !tbaa !15
  %21 = icmp ult i64 %19, %20
  br i1 %21, label %22, label %23

22:                                               ; preds = %18, %4
  store i32 0, ptr %5, align 4
  store i32 1, ptr %12, align 4
  br label %31

23:                                               ; preds = %18
  %24 = load i64, ptr %11, align 8, !tbaa !15
  %25 = load ptr, ptr %8, align 8, !tbaa !23
  store i64 %24, ptr %25, align 8, !tbaa !15
  %26 = load ptr, ptr %10, align 8, !tbaa !7
  %27 = getelementptr inbounds nuw %struct.siphash_data_st, ptr %26, i32 0, i32 1
  %28 = load ptr, ptr %7, align 8, !tbaa !18
  %29 = load i64, ptr %11, align 8, !tbaa !15
  %30 = call i32 @SipHash_Final(ptr noundef %27, ptr noundef %28, i64 noundef %29)
  store i32 %30, ptr %5, align 4
  store i32 1, ptr %12, align 4
  br label %31

31:                                               ; preds = %23, %22
  call void @llvm.lifetime.end.p0(i64 8, ptr %11) #5
  call void @llvm.lifetime.end.p0(i64 8, ptr %10) #5
  %32 = load i32, ptr %5, align 4
  ret i32 %32
}