; Function Attrs: nounwind uwtable
define internal i32 @siphash_final(ptr noundef %0, ptr noundef %1, ptr noundef writeonly captures(none) %2, i64 noundef %3) #0 {
  %5 = getelementptr inbounds nuw i8, ptr %0, i64 8
  %6 = tail call i64 @SipHash_hash_size(ptr noundef nonnull %5) #5
  %7 = tail call i32 @ossl_prov_is_running() #5
  %.not = icmp eq i32 %7, 0
  %8 = icmp ult i64 %3, %6
  %or.cond = select i1 %.not, i1 true, i1 %8
  br i1 %or.cond, label %11, label %9

9:                                                ; preds = %4
  store i64 %6, ptr %2, align 8, !tbaa !13
  %10 = tail call i32 @SipHash_Final(ptr noundef nonnull %5, ptr noundef %1, i64 noundef %6) #5
  br label %11

11:                                               ; preds = %4, %9
  %.0 = phi i32 [ %10, %9 ], [ 0, %4 ]
  ret i32 %.0
}